target datalayout = "e-m:e-p270:32:32-p271:32:32-p272:64:64-i64:64-i128:128-f80:128-n8:16:32:64-S128"
target triple = "x86_64-pc-linux-gnu"

%"class.std::__cxx11::basic_string" = type { %"struct.std::__cxx11::basic_string<char>::_Alloc_hider", i64, %union.anon }
%"struct.std::__cxx11::basic_string<char>::_Alloc_hider" = type { ptr }
%union.anon = type { i64, [8 x i8] }
%"class.rocksdb::Slice" = type { ptr, i64 }
%"class.rocksdb::GetContext" = type { %"struct.rocksdb::GetContextStats", ptr, ptr, ptr, ptr, i32, %"class.rocksdb::Slice", %"class.rocksdb::PinnableSlice", ptr, ptr, ptr, i8, ptr, ptr, ptr, ptr, ptr, ptr, ptr, ptr, i8, i8, ptr, i64, ptr }
%"struct.rocksdb::GetContextStats" = type { i64, i64, i64, i64, i64, i64, i64, i64, i64, i64, i64, i64, i64, i64, i64, i64, i64, i64, i64, i64, i64, i64, i64, i64, i64, i64, i64, i64, i64 }
%"class.rocksdb::PinnableSlice" = type <{ %"class.rocksdb::Slice", %"class.rocksdb::Cleanable", %"class.std::__cxx11::basic_string", ptr, i8, [7 x i8] }>
%"class.rocksdb::Cleanable" = type { %"struct.rocksdb::Cleanable::Cleanup" }
%"struct.rocksdb::Cleanable::Cleanup" = type { ptr, ptr, ptr, ptr }
%"class.rocksdb::PinnedIteratorsManager" = type { %"class.rocksdb::Cleanable", i8, %"class.std::vector.34" }
%"class.std::vector.34" = type { %"struct.std::_Vector_base.35" }
%"struct.std::_Vector_base.35" = type { %"struct.std::_Vector_base<std::pair<void *, void (*)(void *)>, std::allocator<std::pair<void *, void (*)(void *)>>>::_Vector_impl" }
%"struct.std::_Vector_base<std::pair<void *, void (*)(void *)>, std::allocator<std::pair<void *, void (*)(void *)>>>::_Vector_impl" = type { %"struct.std::_Vector_base<std::pair<void *, void (*)(void *)>, std::allocator<std::pair<void *, void (*)(void *)>>>::_Vector_impl_data" }
%"struct.std::_Vector_base<std::pair<void *, void (*)(void *)>, std::allocator<std::pair<void *, void (*)(void *)>>>::_Vector_impl_data" = type { ptr, ptr, ptr }

; Function Attrs: mustprogress nounwind uwtable
define linkonce_odr noundef zeroext i1 @_ZN7rocksdb22PinnedIteratorsManager14PinningEnabledEv(ptr noundef nonnull align 8 dereferenceable(64) %0) #3 comdat align 2 {
  %2 = alloca ptr, align 8
  store ptr %0, ptr %2, align 8, !tbaa !78
  %3 = load ptr, ptr %2, align 8
  %4 = getelementptr inbounds nuw %"class.rocksdb::PinnedIteratorsManager", ptr %3, i32 0, i32 1
  %5 = load i8, ptr %4, align 8, !tbaa !247, !range !108, !noundef !109
  %6 = trunc i8 %5 to i1
  ret i1 %6
}

; Function Attrs: mustprogress nounwind uwtable
define linkonce_odr noundef ptr @_ZN7rocksdb10GetContext16pinned_iters_mgrEv(ptr noundef nonnull align 8 dereferenceable(512) %0) #3 comdat align 2 {
  %2 = alloca ptr, align 8
  store ptr %0, ptr %2, align 8, !tbaa !52
  %3 = load ptr, ptr %2, align 8
  %4 = getelementptr inbounds nuw %"class.rocksdb::GetContext", ptr %3, i32 0, i32 18
  %5 = load ptr, ptr %4, align 8, !tbaa !106
  ret ptr %5
}

; Function Attrs: mustprogress uwtable
define void @_ZN7rocksdb10GetContext12push_operandERKNS_5SliceEPNS_9CleanableE(ptr noundef nonnull align 8 dereferenceable(512) %0, ptr noundef nonnull align 8 dereferenceable(16) %1, ptr noundef %2) #5 align 2 {
  %4 = alloca ptr, align 8
  %5 = alloca ptr, align 8
  %6 = alloca ptr, align 8
  store ptr %0, ptr %4, align 8, !tbaa !52
  store ptr %1, ptr %5, align 8, !tbaa !10
  store ptr %2, ptr %6, align 8, !tbaa !194
  %7 = load ptr, ptr %4, align 8
  %8 = call noundef ptr @_ZN7rocksdb10GetContext16pinned_iters_mgrEv(ptr noundef nonnull align 8 dereferenceable(512) %7)
  %9 = icmp ne ptr %8, null
  br i1 %9, label %10, label %22

10:                                               ; preds = %3
  %11 = call noundef ptr @_ZN7rocksdb10GetContext16pinned_iters_mgrEv(ptr noundef nonnull align 8 dereferenceable(512) %7)
  %12 = call noundef zeroext i1 @_ZN7rocksdb22PinnedIteratorsManager14PinningEnabledEv(ptr noundef nonnull align 8 dereferenceable(64) %11)
  br i1 %12, label %13, label %22

13:                                               ; preds = %10
  %14 = load ptr, ptr %6, align 8, !tbaa !194
  %15 = icmp ne ptr %14, null
  br i1 %15, label %16, label %22

16:                                               ; preds = %13
  %17 = load ptr, ptr %6, align 8, !tbaa !194
  %18 = call noundef ptr @_ZN7rocksdb10GetContext16pinned_iters_mgrEv(ptr noundef nonnull align 8 dereferenceable(512) %7)
  call void @_ZN7rocksdb9Cleanable18DelegateCleanupsToEPS0_(ptr noundef nonnull align 8 dereferenceable(32) %17, ptr noundef %18)
  %19 = getelementptr inbounds nuw %"class.rocksdb::GetContext", ptr %7, i32 0, i32 13
  %20 = load ptr, ptr %19, align 8, !tbaa !101
  %21 = load ptr, ptr %5, align 8, !tbaa !10
  call void @_ZN7rocksdb12MergeContext11PushOperandERKNS_5SliceEb(ptr noundef nonnull align 8 dereferenceable(25) %20, ptr noundef nonnull align 8 dereferenceable(16) %21, i1 noundef zeroext true)
  br label %26

22:                                               ; preds = %13, %10, %3
  %23 = getelementptr inbounds nuw %"class.rocksdb::GetContext", ptr %7, i32 0, i32 13
  %24 = load ptr, ptr %23, align 8, !tbaa !101
  %25 = load ptr, ptr %5, align 8, !tbaa !10
  call void @_ZN7rocksdb12MergeContext11PushOperandERKNS_5SliceEb(ptr noundef nonnull align 8 dereferenceable(25) %24, ptr noundef nonnull align 8 dereferenceable(16) %25, i1 noundef zeroext false)
  br label %26

26:                                               ; preds = %22, %16
  ret void
}