; Function Attrs: mustprogress uwtable
define void @_ZN7rocksdb10GetContext12push_operandERKNS_5SliceEPNS_9CleanableE(ptr noundef nonnull readonly align 8 captures(none) dereferenceable(512) %0, ptr noundef nonnull align 8 dereferenceable(16) %1, ptr noundef %2) local_unnamed_addr #4 align 2 {
  %4 = getelementptr inbounds nuw i8, ptr %0, i64 464
  %5 = load ptr, ptr %4, align 8, !tbaa !64
  %.not = icmp eq ptr %5, null
  br i1 %.not, label %12, label %6

6:                                                ; preds = %3
  %7 = getelementptr inbounds nuw i8, ptr %5, i64 32
  %8 = load i8, ptr %7, align 8, !tbaa !136, !range !122, !noundef !123
  %9 = trunc nuw i8 %8 to i1
  %10 = icmp ne ptr %2, null
  %or.cond = and i1 %10, %9
  br i1 %or.cond, label %11, label %12

11:                                               ; preds = %6
  tail call void @_ZN7rocksdb9Cleanable18DelegateCleanupsToEPS0_(ptr noundef nonnull align 8 dereferenceable(32) %2, ptr noundef nonnull %5)
  br label %12

12:                                               ; preds = %3, %6, %11
  %.sink6 = phi i1 [ true, %11 ], [ false, %6 ], [ false, %3 ]
  %13 = getelementptr inbounds nuw i8, ptr %0, i64 424
  %14 = load ptr, ptr %13, align 8, !tbaa !59
  tail call void @_ZN7rocksdb12MergeContext11PushOperandERKNS_5SliceEb(ptr noundef nonnull align 8 dereferenceable(25) %14, ptr noundef nonnull align 8 dereferenceable(16) %1, i1 noundef zeroext %.sink6)
  ret void
}